; Function Attrs: nounwind uwtable
define dso_local range(i32 0, 2) i32 @ossl_cmp_mock_srv_set_checkAfterTime(ptr noundef %0, i32 noundef %1) local_unnamed_addr #0 {
  %3 = tail call ptr @OSSL_CMP_SRV_CTX_get0_custom_ctx(ptr noundef %0) #4
  %4 = icmp eq ptr %3, null
  br i1 %4, label %5, label %6

5:                                                ; preds = %2
  tail call void @ERR_new() #4
  tail call void @ERR_set_debug(ptr noundef nonnull @.str, i32 noundef 211, ptr noundef nonnull @__func__.ossl_cmp_mock_srv_set_checkAfterTime) #4
  tail call void (i32, i32, ptr, ...) @ERR_set_error(i32 noundef 58, i32 noundef 103, ptr noundef null) #4
  br label %8

6:                                                ; preds = %2
  %7 = getelementptr inbounds nuw i8, ptr %3, i64 104
  store i32 %1, ptr %7, align 8, !tbaa !27
  br label %8

8:                                                ; preds = %6, %5
  %.0 = phi i32 [ 0, %5 ], [ 1, %6 ]
  ret i32 %.0
}